target datalayout = "e-m:e-p270:32:32-p271:32:32-p272:64:64-i64:64-i128:128-f80:128-n8:16:32:64-S128"
target triple = "x86_64-pc-linux-gnu"

%"class.gmx::BinaryInformationSettings" = type { i8, i8, i8, i8, ptr, ptr }
%class.anon = type { i8 }

@.str.3 = private unnamed_addr constant [130 x i8] c"generated/home/dtcxzyw/WorkSpace/Projects/compilers/llvm-opt-benchmark/bench/gromacs/gromacs/src/gromacs/mdrunutility/logging.cpp\00", align 1
@_ZTISt9exception = external constant ptr
@.str.5 = private unnamed_addr constant [2 x i8] c"\0A\00", align 1
@.str.6 = private unnamed_addr constant [17 x i8] c"fplog != nullptr\00", align 1
@.str.7 = private unnamed_addr constant [30 x i8] c"Log file must be already open\00", align 1
@"__PRETTY_FUNCTION__._ZZN3gmxL14prepareLogFileENS_25BinaryInformationSettingsEP8_IO_FILEENK3$_0clEv" = private unnamed_addr constant [99 x i8] c"auto gmx::prepareLogFile(BinaryInformationSettings, FILE *)::(anonymous class)::operator()() const\00", align 1

; Function Attrs: mustprogress nounwind uwtable
define linkonce_odr noundef nonnull align 8 dereferenceable(24) ptr @_ZN3gmx25BinaryInformationSettings9processIdEb(ptr noundef nonnull align 8 dereferenceable(24) %0, i1 noundef zeroext %1) #2 comdat align 2 {
  %3 = alloca ptr, align 8
  %4 = alloca i8, align 1
  store ptr %0, ptr %3, align 8
  %5 = zext i1 %1 to i8
  store i8 %5, ptr %4, align 1
  %6 = load ptr, ptr %3, align 8
  %7 = load i8, ptr %4, align 1
  %8 = trunc i8 %7 to i1
  %9 = getelementptr inbounds %"class.gmx::BinaryInformationSettings", ptr %6, i32 0, i32 2
  %10 = zext i1 %8 to i8
  store i8 %10, ptr %9, align 2
  ret ptr %6
}

; Function Attrs: mustprogress nounwind uwtable
define linkonce_odr noundef nonnull align 8 dereferenceable(24) ptr @_ZN3gmx25BinaryInformationSettings12extendedInfoEb(ptr noundef nonnull align 8 dereferenceable(24) %0, i1 noundef zeroext %1) #2 comdat align 2 {
  %3 = alloca ptr, align 8
  %4 = alloca i8, align 1
  store ptr %0, ptr %3, align 8
  %5 = zext i1 %1 to i8
  store i8 %5, ptr %4, align 1
  %6 = load ptr, ptr %3, align 8
  %7 = load i8, ptr %4, align 1
  %8 = trunc i8 %7 to i1
  %9 = getelementptr inbounds %"class.gmx::BinaryInformationSettings", ptr %6, i32 0, i32 0
  %10 = zext i1 %8 to i8
  store i8 %10, ptr %9, align 8
  ret ptr %6
}

; Function Attrs: mustprogress uwtable
define internal void @"_ZZN3gmxL14prepareLogFileENS_25BinaryInformationSettingsEP8_IO_FILEENK3$_0clEv"(ptr noundef nonnull align 1 dereferenceable(1) %0) #0 align 2 {
  %2 = alloca ptr, align 8
  store ptr %0, ptr %2, align 8
  call void @_ZN3gmx8internal13assertHandlerEPKcS2_S2_S2_i(ptr noundef @.str.6, ptr noundef @.str.7, ptr noundef @"__PRETTY_FUNCTION__._ZZN3gmxL14prepareLogFileENS_25BinaryInformationSettingsEP8_IO_FILEENK3$_0clEv", ptr noundef @.str.3, i32 noundef 61) #11
  unreachable
}

; Function Attrs: mustprogress uwtable
define internal void @_ZN3gmxL14prepareLogFileENS_25BinaryInformationSettingsEP8_IO_FILE(ptr noundef byval(%"class.gmx::BinaryInformationSettings") align 8 %0, ptr noundef %1) #0 personality ptr @__gxx_personality_v0 {
  %3 = alloca ptr, align 8
  %4 = alloca %class.anon, align 1
  %5 = alloca ptr, align 8
  %6 = alloca i32, align 4
  %7 = alloca ptr, align 8
  store ptr %1, ptr %3, align 8
  %8 = load ptr, ptr %3, align 8
  %9 = icmp ne ptr %8, null
  br i1 %9, label %10, label %11

10:                                               ; preds = %2
  br label %12

11:                                               ; preds = %2
  call void @"_ZZN3gmxL14prepareLogFileENS_25BinaryInformationSettingsEP8_IO_FILEENK3$_0clEv"(ptr noundef nonnull align 1 dereferenceable(1) %4)
  br label %12

12:                                               ; preds = %11, %10
  %13 = load ptr, ptr %3, align 8
  call void @_Z22gmx_fatal_set_log_fileP8_IO_FILE(ptr noundef %13)
  %14 = invoke noundef nonnull align 8 dereferenceable(24) ptr @_ZN3gmx25BinaryInformationSettings12extendedInfoEb(ptr noundef nonnull align 8 dereferenceable(24) %0, i1 noundef zeroext true)
          to label %15 unwind label %22

15:                                               ; preds = %12
  %16 = invoke noundef nonnull align 8 dereferenceable(24) ptr @_ZN3gmx25BinaryInformationSettings9processIdEb(ptr noundef nonnull align 8 dereferenceable(24) %14, i1 noundef zeroext true)
          to label %17 unwind label %22

17:                                               ; preds = %15
  %18 = load ptr, ptr %3, align 8
  %19 = invoke noundef nonnull align 8 dereferenceable(8) ptr @_ZN3gmx17getProgramContextEv()
          to label %20 unwind label %22

20:                                               ; preds = %17
  invoke void @_ZN3gmx22printBinaryInformationEP8_IO_FILERKNS_15IProgramContextERKNS_25BinaryInformationSettingsE(ptr noundef %18, ptr noundef nonnull align 8 dereferenceable(8) %19, ptr noundef nonnull align 8 dereferenceable(24) %0)
          to label %21 unwind label %22

21:                                               ; preds = %20
  br label %40

22:                                               ; preds = %20, %17, %15, %12
  %23 = landingpad { ptr, i32 }
          catch ptr @_ZTISt9exception
  %24 = extractvalue { ptr, i32 } %23, 0
  store ptr %24, ptr %5, align 8
  %25 = extractvalue { ptr, i32 } %23, 1
  store i32 %25, ptr %6, align 4
  br label %26

26:                                               ; preds = %22
  %27 = load i32, ptr %6, align 4
  %28 = call i32 @llvm.eh.typeid.for(ptr @_ZTISt9exception) #10
  %29 = icmp eq i32 %27, %28
  br i1 %29, label %30, label %45

30:                                               ; preds = %26
  %31 = load ptr, ptr %5, align 8
  %32 = call ptr @__cxa_begin_catch(ptr %31) #10
  store ptr %32, ptr %7, align 8
  %33 = load ptr, ptr %7, align 8
  invoke void @_ZN3gmx28processExceptionAsFatalErrorERKSt9exception(ptr noundef nonnull align 8 dereferenceable(8) %33) #11
          to label %34 unwind label %35

34:                                               ; preds = %30
  unreachable

35:                                               ; preds = %30
  %36 = landingpad { ptr, i32 }
          cleanup
  %37 = extractvalue { ptr, i32 } %36, 0
  store ptr %37, ptr %5, align 8
  %38 = extractvalue { ptr, i32 } %36, 1
  store i32 %38, ptr %6, align 4
  invoke void @__cxa_end_catch()
          to label %39 unwind label %50

39:                                               ; preds = %35
  br label %45

40:                                               ; preds = %21
  %41 = load ptr, ptr %3, align 8
  %42 = call i32 (ptr, ptr, ...) @fprintf(ptr noundef %41, ptr noundef @.str.5) #10
  %43 = load ptr, ptr %3, align 8
  %44 = call i32 @fflush(ptr noundef %43)
  ret void

45:                                               ; preds = %39, %26
  %46 = load ptr, ptr %5, align 8
  %47 = load i32, ptr %6, align 4
  %48 = insertvalue { ptr, i32 } poison, ptr %46, 0
  %49 = insertvalue { ptr, i32 } %48, i32 %47, 1
  resume { ptr, i32 } %49

50:                                               ; preds = %35
  %51 = landingpad { ptr, i32 }
          catch ptr null
  %52 = extractvalue { ptr, i32 } %51, 0
  call void @__clang_call_terminate(ptr %52) #12
  unreachable
}