; Function Attrs: mustprogress uwtable
define internal fastcc void @_ZN3gmxL14prepareLogFileENS_25BinaryInformationSettingsEP8_IO_FILE(ptr noundef byval(%"class.gmx::BinaryInformationSettings") align 8 %0, ptr noundef %1) unnamed_addr #0 personality ptr @__gxx_personality_v0 {
  %.not = icmp eq ptr %1, null
  br i1 %.not, label %3, label %4

3:                                                ; preds = %2
  tail call void @_ZN3gmx8internal13assertHandlerEPKcS2_S2_S2_i(ptr noundef nonnull @.str.6, ptr noundef nonnull @.str.7, ptr noundef nonnull @"__PRETTY_FUNCTION__._ZZN3gmxL14prepareLogFileENS_25BinaryInformationSettingsEP8_IO_FILEENK3$_0clEv", ptr noundef nonnull @.str.3, i32 noundef 61) #16
  unreachable

4:                                                ; preds = %2
  tail call void @_Z22gmx_fatal_set_log_fileP8_IO_FILE(ptr noundef nonnull %1)
  store i8 1, ptr %0, align 8
  %5 = getelementptr inbounds i8, ptr %0, i64 2
  store i8 1, ptr %5, align 2
  %6 = invoke noundef nonnull align 8 dereferenceable(8) ptr @_ZN3gmx17getProgramContextEv()
          to label %7 unwind label %8

7:                                                ; preds = %4
  invoke void @_ZN3gmx22printBinaryInformationEP8_IO_FILERKNS_15IProgramContextERKNS_25BinaryInformationSettingsE(ptr noundef nonnull %1, ptr noundef nonnull align 8 dereferenceable(8) %6, ptr noundef nonnull align 8 dereferenceable(24) %0)
          to label %19 unwind label %8

8:                                                ; preds = %7, %4
  %9 = landingpad { ptr, i32 }
          catch ptr @_ZTISt9exception
  %10 = extractvalue { ptr, i32 } %9, 1
  %11 = call i32 @llvm.eh.typeid.for(ptr nonnull @_ZTISt9exception) #15
  %12 = icmp eq i32 %10, %11
  br i1 %12, label %13, label %21

13:                                               ; preds = %8
  %14 = extractvalue { ptr, i32 } %9, 0
  %15 = call ptr @__cxa_begin_catch(ptr %14) #15
  invoke void @_ZN3gmx28processExceptionAsFatalErrorERKSt9exception(ptr noundef nonnull align 8 dereferenceable(8) %15) #16
          to label %16 unwind label %17

16:                                               ; preds = %13
  unreachable

17:                                               ; preds = %13
  %18 = landingpad { ptr, i32 }
          cleanup
  invoke void @__cxa_end_catch()
          to label %21 unwind label %22

19:                                               ; preds = %7
  %fputc = call i32 @fputc(i32 10, ptr nonnull %1)
  %20 = call i32 @fflush(ptr noundef nonnull %1)
  ret void

21:                                               ; preds = %17, %8
  %.merged = phi { ptr, i32 } [ %18, %17 ], [ %9, %8 ]
  resume { ptr, i32 } %.merged

22:                                               ; preds = %17
  %23 = landingpad { ptr, i32 }
          catch ptr null
  %24 = extractvalue { ptr, i32 } %23, 0
  call void @__clang_call_terminate(ptr %24) #19
  unreachable
}